(dp0
S'status'
p1
I0
sS'items'
p2
(dp3
I1001
(i__main__
item
p4
(dp5
S'name'
p6
S'Cheese'
p7
sS'cp'
p8
I12
sS'prof_perc'
p9
I20
sS'sp'
p10
F14.4
sS'quantity'
p11
I300
sbssS'sales'
p12
I0
sS'emp'
p13
(dp14
I2000
(i__main__
staff
p15
(dp16
S'pwd'
p17
S'*****'
p18
sS'mob_num'
p19
I0
sg6
S''
p20
sbssS'io'
p21
(dp22
S'admin'
p23
I0
sS'employee'
p24
I0
sg2
I0
ssS'prof'
p25
I0
sS'adm'
p26
(dp27
I1000
(i__main__
staff
p28
(dp29
g17
g18
sg19
I0
sg6
g20
sbss.